target datalayout = "e-m:e-p270:32:32-p271:32:32-p272:64:64-i64:64-i128:128-f80:128-n8:16:32:64-S128"
target triple = "x86_64-pc-linux-gnu"

%struct.auth_ops_t = type { ptr, ptr, ptr, ptr, ptr, ptr, ptr, ptr, ptr, ptr, ptr, ptr, ptr, ptr, ptr, ptr }
%struct.cred_wrapper_t = type { i32, [0 x i8] }

@ops = internal global ptr null, align 8
@.str.17 = private unnamed_addr constant [32 x i8] c"%s: pthread_rwlock_unlock(): %m\00", align 1
@.str.19 = private unnamed_addr constant [32 x i8] c"%s: pthread_rwlock_rdlock(): %m\00", align 1
@__func__.auth_g_get_data = private unnamed_addr constant [16 x i8] c"auth_g_get_data\00", align 1
@context_lock = internal global { { i32, i32, i32, i32, i32, i32, i32, i32, i8, [7 x i8], i64, i32, [4 x i8] } } zeroinitializer, align 8

; Function Attrs: nounwind uwtable
define dso_local i32 @auth_g_get_data(ptr noundef %0, ptr noundef %1, ptr noundef %2) #0 {
  %4 = alloca i32, align 4
  %5 = alloca ptr, align 8
  %6 = alloca ptr, align 8
  %7 = alloca ptr, align 8
  %8 = alloca ptr, align 8
  %9 = alloca i32, align 4
  %10 = alloca i32, align 4
  %11 = alloca i32, align 4
  %12 = alloca i32, align 4
  store ptr %0, ptr %5, align 8
  store ptr %1, ptr %6, align 8
  store ptr %2, ptr %7, align 8
  call void @llvm.lifetime.start.p0(i64 8, ptr %8) #6
  %13 = load ptr, ptr %5, align 8
  store ptr %13, ptr %8, align 8
  call void @llvm.lifetime.start.p0(i64 4, ptr %9) #6
  store i32 -1, ptr %9, align 4
  %14 = load ptr, ptr %8, align 8
  %15 = icmp ne ptr %14, null
  br i1 %15, label %17, label %16

16:                                               ; preds = %3
  store i32 -1, ptr %4, align 4
  store i32 1, ptr %10, align 4
  br label %51

17:                                               ; preds = %3
  br label %18

18:                                               ; preds = %17
  call void @llvm.lifetime.start.p0(i64 4, ptr %11) #6
  %19 = call i32 @pthread_rwlock_rdlock(ptr noundef @context_lock) #6
  store i32 %19, ptr %11, align 4
  %20 = load i32, ptr %11, align 4
  %21 = icmp ne i32 %20, 0
  br i1 %21, label %22, label %25

22:                                               ; preds = %18
  %23 = load i32, ptr %11, align 4
  %24 = call ptr @__errno_location() #8
  store i32 %23, ptr %24, align 4
  call void (ptr, ...) @fatal_abort(ptr noundef @.str.19, ptr noundef @__func__.auth_g_get_data) #7
  unreachable

25:                                               ; preds = %18
  call void @llvm.lifetime.end.p0(i64 4, ptr %11) #6
  br label %26

26:                                               ; preds = %25
  br label %27

27:                                               ; preds = %26
  %28 = load ptr, ptr @ops, align 8
  %29 = load ptr, ptr %8, align 8
  %30 = getelementptr inbounds nuw %struct.cred_wrapper_t, ptr %29, i32 0, i32 0
  %31 = load i32, ptr %30, align 4
  %32 = sext i32 %31 to i64
  %33 = getelementptr inbounds %struct.auth_ops_t, ptr %28, i64 %32
  %34 = getelementptr inbounds nuw %struct.auth_ops_t, ptr %33, i32 0, i32 8
  %35 = load ptr, ptr %34, align 8
  %36 = load ptr, ptr %5, align 8
  %37 = load ptr, ptr %6, align 8
  %38 = load ptr, ptr %7, align 8
  %39 = call i32 %35(ptr noundef %36, ptr noundef %37, ptr noundef %38)
  store i32 %39, ptr %9, align 4
  br label %40

40:                                               ; preds = %27
  call void @llvm.lifetime.start.p0(i64 4, ptr %12) #6
  %41 = call i32 @pthread_rwlock_unlock(ptr noundef @context_lock) #6
  store i32 %41, ptr %12, align 4
  %42 = load i32, ptr %12, align 4
  %43 = icmp ne i32 %42, 0
  br i1 %43, label %44, label %47

44:                                               ; preds = %40
  %45 = load i32, ptr %12, align 4
  %46 = call ptr @__errno_location() #8
  store i32 %45, ptr %46, align 4
  call void (ptr, ...) @fatal_abort(ptr noundef @.str.17, ptr noundef @__func__.auth_g_get_data) #7
  unreachable

47:                                               ; preds = %40
  call void @llvm.lifetime.end.p0(i64 4, ptr %12) #6
  br label %48

48:                                               ; preds = %47
  br label %49

49:                                               ; preds = %48
  %50 = load i32, ptr %9, align 4
  store i32 %50, ptr %4, align 4
  store i32 1, ptr %10, align 4
  br label %51

51:                                               ; preds = %49, %16
  call void @llvm.lifetime.end.p0(i64 4, ptr %9) #6
  call void @llvm.lifetime.end.p0(i64 8, ptr %8) #6
  %52 = load i32, ptr %4, align 4
  ret i32 %52
}