; Function Attrs: nounwind uwtable
define dso_local i32 @auth_g_get_data(ptr noundef %0, ptr noundef %1, ptr noundef %2) local_unnamed_addr #2 {
  %.not = icmp eq ptr %0, null
  br i1 %.not, label %18, label %4

4:                                                ; preds = %3
  %5 = tail call i32 @pthread_rwlock_rdlock(ptr noundef nonnull @context_lock) #12
  %.not14 = icmp eq i32 %5, 0
  br i1 %.not14, label %8, label %6

6:                                                ; preds = %4
  %7 = tail call ptr @__errno_location() #13
  store i32 %5, ptr %7, align 4
  tail call void (ptr, ...) @fatal_abort(ptr noundef nonnull @.str.19, ptr noundef nonnull @__func__.auth_g_get_data) #11
  unreachable

8:                                                ; preds = %4
  %9 = load ptr, ptr @ops, align 8
  %10 = load i32, ptr %0, align 4
  %11 = sext i32 %10 to i64
  %12 = getelementptr inbounds %struct.auth_ops_t, ptr %9, i64 %11, i32 8
  %13 = load ptr, ptr %12, align 8
  %14 = tail call i32 %13(ptr noundef nonnull %0, ptr noundef %1, ptr noundef %2) #12
  %15 = tail call i32 @pthread_rwlock_unlock(ptr noundef nonnull @context_lock) #12
  %.not15 = icmp eq i32 %15, 0
  br i1 %.not15, label %18, label %16

16:                                               ; preds = %8
  %17 = tail call ptr @__errno_location() #13
  store i32 %15, ptr %17, align 4
  tail call void (ptr, ...) @fatal_abort(ptr noundef nonnull @.str.17, ptr noundef nonnull @__func__.auth_g_get_data) #11
  unreachable

18:                                               ; preds = %8, %3
  %.0 = phi i32 [ -1, %3 ], [ %14, %8 ]
  ret i32 %.0
}